; Function Attrs: nounwind uwtable
define range(i32 -29, 1) i32 @CVodeGetNumProjEvals(ptr noundef %0, ptr noundef writeonly captures(none) %1) local_unnamed_addr #0 {
  %3 = icmp eq ptr %0, null
  br i1 %3, label %4, label %5

4:                                                ; preds = %2
  tail call void (ptr, i32, i32, ptr, ptr, ptr, ...) @cvProcessError(ptr noundef null, i32 noundef -21, i32 noundef 438, ptr noundef nonnull @__func__.CVodeGetNumProjEvals, ptr noundef nonnull @.str, ptr noundef nonnull @.str.1) #8
  br label %cvAccessProjMem.exit.thread

5:                                                ; preds = %2
  %6 = getelementptr inbounds nuw i8, ptr %0, i64 1504
  %7 = load ptr, ptr %6, align 8
  %8 = icmp eq ptr %7, null
  br i1 %8, label %9, label %cvAccessProjMem.exit

9:                                                ; preds = %5
  tail call void (ptr, i32, i32, ptr, ptr, ptr, ...) @cvProcessError(ptr noundef nonnull %0, i32 noundef -29, i32 noundef 446, ptr noundef nonnull @__func__.CVodeGetNumProjEvals, ptr noundef nonnull @.str, ptr noundef nonnull @.str.5) #8
  br label %cvAccessProjMem.exit.thread

cvAccessProjMem.exit:                             ; preds = %5
  %10 = getelementptr inbounds nuw i8, ptr %7, i64 64
  %11 = load i64, ptr %10, align 8
  store i64 %11, ptr %1, align 8
  br label %cvAccessProjMem.exit.thread

cvAccessProjMem.exit.thread:                      ; preds = %9, %4, %cvAccessProjMem.exit
  %.0 = phi i32 [ 0, %cvAccessProjMem.exit ], [ -29, %9 ], [ -21, %4 ]
  ret i32 %.0
}